#include <math.h>
#include <stdio.h>
#include <stdlib.h>
#include <string.h>

int main()
{
	int i,j,n,m;
	double a=1,sum[100]={0};
	scanf("%d",&m);
	for(i=0;i<m;i++){
		scanf("%d",&n);
		for(j=0;j<n;j++){
			a=1/a+1;
			sum[i]=sum[i]+a;	
		}
                    a=1;
	}
	for(i=0;i<m;i++){
		printf("%.3lf\n",sum[i]);
	}
	return 0;
}
